target datalayout = "e-m:e-p270:32:32-p271:32:32-p272:64:64-i64:64-i128:128-f80:128-n8:16:32:64-S128"
target triple = "x86_64-pc-linux-gnu"

%struct.lzh_stream = type { ptr, i32, i64, ptr, i32, i64, ptr }
%struct.lzh_dec = type { i32, i32, i32, ptr, i32, i32, i32, %struct.lzh_br, %struct.huffman, %struct.huffman, i32, i32, i32, i32, i32, i32, i32, i32 }
%struct.lzh_br = type { i64, i32 }
%struct.huffman = type { i32, i32, i32, [17 x i32], ptr, i32, i32, i32, i32, i32, ptr, ptr }

@cache_masks = internal constant [20 x i16] [i16 0, i16 1, i16 3, i16 7, i16 15, i16 31, i16 63, i16 127, i16 255, i16 511, i16 1023, i16 2047, i16 4095, i16 8191, i16 16383, i16 32767, i16 -1, i16 -1, i16 -1, i16 -1], align 16

; Function Attrs: nounwind uwtable
define internal i32 @lzh_read_pt_bitlen(ptr noundef %0, i32 noundef %1, i32 noundef %2) #0 {
  %4 = alloca i32, align 4
  %5 = alloca ptr, align 8
  %6 = alloca i32, align 4
  %7 = alloca i32, align 4
  %8 = alloca ptr, align 8
  %9 = alloca ptr, align 8
  %10 = alloca i32, align 4
  %11 = alloca i32, align 4
  %12 = alloca i32, align 4
  store ptr %0, ptr %5, align 8, !tbaa !144
  store i32 %1, ptr %6, align 4, !tbaa !11
  store i32 %2, ptr %7, align 4, !tbaa !11
  call void @llvm.lifetime.start.p0(i64 8, ptr %8) #11
  %13 = load ptr, ptr %5, align 8, !tbaa !144
  %14 = getelementptr inbounds nuw %struct.lzh_stream, ptr %13, i32 0, i32 6
  %15 = load ptr, ptr %14, align 8, !tbaa !146
  store ptr %15, ptr %8, align 8, !tbaa !147
  call void @llvm.lifetime.start.p0(i64 8, ptr %9) #11
  %16 = load ptr, ptr %8, align 8, !tbaa !147
  %17 = getelementptr inbounds nuw %struct.lzh_dec, ptr %16, i32 0, i32 7
  store ptr %17, ptr %9, align 8, !tbaa !176
  call void @llvm.lifetime.start.p0(i64 4, ptr %10) #11
  call void @llvm.lifetime.start.p0(i64 4, ptr %11) #11
  %18 = load i32, ptr %6, align 4, !tbaa !11
  store i32 %18, ptr %11, align 4, !tbaa !11
  br label %19

19:                                               ; preds = %109, %3
  %20 = load i32, ptr %11, align 4, !tbaa !11
  %21 = load i32, ptr %7, align 4, !tbaa !11
  %22 = icmp slt i32 %20, %21
  br i1 %22, label %23, label %128

23:                                               ; preds = %19
  %24 = load ptr, ptr %9, align 8, !tbaa !176
  %25 = getelementptr inbounds nuw %struct.lzh_br, ptr %24, i32 0, i32 1
  %26 = load i32, ptr %25, align 8, !tbaa !178
  %27 = icmp sge i32 %26, 3
  br i1 %27, label %40, label %28

28:                                               ; preds = %23
  %29 = load ptr, ptr %5, align 8, !tbaa !144
  %30 = load ptr, ptr %9, align 8, !tbaa !176
  %31 = call i32 @lzh_br_fillup(ptr noundef %29, ptr noundef %30)
  %32 = icmp ne i32 %31, 0
  br i1 %32, label %40, label %33

33:                                               ; preds = %28
  %34 = load ptr, ptr %9, align 8, !tbaa !176
  %35 = getelementptr inbounds nuw %struct.lzh_br, ptr %34, i32 0, i32 1
  %36 = load i32, ptr %35, align 8, !tbaa !178
  %37 = icmp sge i32 %36, 3
  br i1 %37, label %40, label %38

38:                                               ; preds = %33
  %39 = load i32, ptr %11, align 4, !tbaa !11
  store i32 %39, ptr %4, align 4
  store i32 1, ptr %12, align 4
  br label %130

40:                                               ; preds = %33, %28, %23
  %41 = load ptr, ptr %9, align 8, !tbaa !176
  %42 = getelementptr inbounds nuw %struct.lzh_br, ptr %41, i32 0, i32 0
  %43 = load i64, ptr %42, align 8, !tbaa !179
  %44 = load ptr, ptr %9, align 8, !tbaa !176
  %45 = getelementptr inbounds nuw %struct.lzh_br, ptr %44, i32 0, i32 1
  %46 = load i32, ptr %45, align 8, !tbaa !178
  %47 = sub nsw i32 %46, 3
  %48 = zext i32 %47 to i64
  %49 = lshr i64 %43, %48
  %50 = trunc i64 %49 to i16
  %51 = zext i16 %50 to i32
  %52 = load i16, ptr getelementptr inbounds ([20 x i16], ptr @cache_masks, i64 0, i64 3), align 2, !tbaa !107
  %53 = zext i16 %52 to i32
  %54 = and i32 %51, %53
  store i32 %54, ptr %10, align 4, !tbaa !11
  %55 = icmp eq i32 %54, 7
  br i1 %55, label %56, label %104

56:                                               ; preds = %40
  %57 = load ptr, ptr %9, align 8, !tbaa !176
  %58 = getelementptr inbounds nuw %struct.lzh_br, ptr %57, i32 0, i32 1
  %59 = load i32, ptr %58, align 8, !tbaa !178
  %60 = icmp sge i32 %59, 13
  br i1 %60, label %73, label %61

61:                                               ; preds = %56
  %62 = load ptr, ptr %5, align 8, !tbaa !144
  %63 = load ptr, ptr %9, align 8, !tbaa !176
  %64 = call i32 @lzh_br_fillup(ptr noundef %62, ptr noundef %63)
  %65 = icmp ne i32 %64, 0
  br i1 %65, label %73, label %66

66:                                               ; preds = %61
  %67 = load ptr, ptr %9, align 8, !tbaa !176
  %68 = getelementptr inbounds nuw %struct.lzh_br, ptr %67, i32 0, i32 1
  %69 = load i32, ptr %68, align 8, !tbaa !178
  %70 = icmp sge i32 %69, 13
  br i1 %70, label %73, label %71

71:                                               ; preds = %66
  %72 = load i32, ptr %11, align 4, !tbaa !11
  store i32 %72, ptr %4, align 4
  store i32 1, ptr %12, align 4
  br label %130

73:                                               ; preds = %66, %61, %56
  %74 = load ptr, ptr %9, align 8, !tbaa !176
  %75 = getelementptr inbounds nuw %struct.lzh_br, ptr %74, i32 0, i32 0
  %76 = load i64, ptr %75, align 8, !tbaa !179
  %77 = load ptr, ptr %9, align 8, !tbaa !176
  %78 = getelementptr inbounds nuw %struct.lzh_br, ptr %77, i32 0, i32 1
  %79 = load i32, ptr %78, align 8, !tbaa !178
  %80 = sub nsw i32 %79, 13
  %81 = zext i32 %80 to i64
  %82 = lshr i64 %76, %81
  %83 = trunc i64 %82 to i16
  %84 = zext i16 %83 to i32
  %85 = load i16, ptr getelementptr inbounds ([20 x i16], ptr @cache_masks, i64 0, i64 13), align 2, !tbaa !107
  %86 = zext i16 %85 to i32
  %87 = and i32 %84, %86
  %88 = and i32 %87, 1023
  %89 = sext i32 %88 to i64
  %90 = getelementptr inbounds [1024 x i8], ptr @bitlen_tbl, i64 0, i64 %89
  %91 = load i8, ptr %90, align 1, !tbaa !29
  %92 = sext i8 %91 to i32
  store i32 %92, ptr %10, align 4, !tbaa !11
  %93 = load i32, ptr %10, align 4, !tbaa !11
  %94 = icmp ne i32 %93, 0
  br i1 %94, label %95, label %102

95:                                               ; preds = %73
  %96 = load i32, ptr %10, align 4, !tbaa !11
  %97 = sub nsw i32 %96, 3
  %98 = load ptr, ptr %9, align 8, !tbaa !176
  %99 = getelementptr inbounds nuw %struct.lzh_br, ptr %98, i32 0, i32 1
  %100 = load i32, ptr %99, align 8, !tbaa !178
  %101 = sub nsw i32 %100, %97
  store i32 %101, ptr %99, align 8, !tbaa !178
  br label %103

102:                                              ; preds = %73
  store i32 -1, ptr %4, align 4
  store i32 1, ptr %12, align 4
  br label %130

103:                                              ; preds = %95
  br label %109

104:                                              ; preds = %40
  %105 = load ptr, ptr %9, align 8, !tbaa !176
  %106 = getelementptr inbounds nuw %struct.lzh_br, ptr %105, i32 0, i32 1
  %107 = load i32, ptr %106, align 8, !tbaa !178
  %108 = sub nsw i32 %107, 3
  store i32 %108, ptr %106, align 8, !tbaa !178
  br label %109

109:                                              ; preds = %104, %103
  %110 = load i32, ptr %10, align 4, !tbaa !11
  %111 = trunc i32 %110 to i8
  %112 = load ptr, ptr %8, align 8, !tbaa !147
  %113 = getelementptr inbounds nuw %struct.lzh_dec, ptr %112, i32 0, i32 9
  %114 = getelementptr inbounds nuw %struct.huffman, ptr %113, i32 0, i32 4
  %115 = load ptr, ptr %114, align 8, !tbaa !186
  %116 = load i32, ptr %11, align 4, !tbaa !11
  %117 = add nsw i32 %116, 1
  store i32 %117, ptr %11, align 4, !tbaa !11
  %118 = sext i32 %116 to i64
  %119 = getelementptr inbounds i8, ptr %115, i64 %118
  store i8 %111, ptr %119, align 1, !tbaa !29
  %120 = load ptr, ptr %8, align 8, !tbaa !147
  %121 = getelementptr inbounds nuw %struct.lzh_dec, ptr %120, i32 0, i32 9
  %122 = getelementptr inbounds nuw %struct.huffman, ptr %121, i32 0, i32 3
  %123 = load i32, ptr %10, align 4, !tbaa !11
  %124 = sext i32 %123 to i64
  %125 = getelementptr inbounds [17 x i32], ptr %122, i64 0, i64 %124
  %126 = load i32, ptr %125, align 4, !tbaa !11
  %127 = add nsw i32 %126, 1
  store i32 %127, ptr %125, align 4, !tbaa !11
  br label %19, !llvm.loop !203

128:                                              ; preds = %19
  %129 = load i32, ptr %11, align 4, !tbaa !11
  store i32 %129, ptr %4, align 4
  store i32 1, ptr %12, align 4
  br label %130

130:                                              ; preds = %128, %102, %71, %38
  call void @llvm.lifetime.end.p0(i64 4, ptr %11) #11
  call void @llvm.lifetime.end.p0(i64 4, ptr %10) #11
  call void @llvm.lifetime.end.p0(i64 8, ptr %9) #11
  call void @llvm.lifetime.end.p0(i64 8, ptr %8) #11
  %131 = load i32, ptr %4, align 4
  ret i32 %131
}