; Function Attrs: nofree norecurse nosync nounwind memory(readwrite, inaccessiblemem: none) uwtable
define internal fastcc i32 @lzh_read_pt_bitlen(ptr noundef captures(none) %0, i32 noundef %1, i32 noundef %2) unnamed_addr #15 {
  %4 = getelementptr inbounds nuw i8, ptr %0, i64 48
  %5 = load ptr, ptr %4, align 8, !tbaa !103
  %6 = getelementptr inbounds nuw i8, ptr %5, i64 40
  %7 = icmp slt i32 %1, %2
  br i1 %7, label %.lr.ph, label %._crit_edge

.lr.ph:                                           ; preds = %3
  %8 = getelementptr inbounds nuw i8, ptr %5, i64 48
  %9 = getelementptr inbounds nuw i8, ptr %5, i64 264
  %10 = getelementptr inbounds nuw i8, ptr %5, i64 196
  %11 = sext i32 %1 to i64
  br label %12

12:                                               ; preds = %.lr.ph, %44
  %indvars.iv = phi i64 [ %11, %.lr.ph ], [ %indvars.iv.next, %44 ]
  %13 = load i32, ptr %8, align 8, !tbaa !136
  %14 = icmp sgt i32 %13, 2
  br i1 %14, label %thread-pre-split, label %15

15:                                               ; preds = %12
  %16 = tail call fastcc i32 @lzh_br_fillup(ptr noundef %0, ptr noundef nonnull %6)
  %.not = icmp ne i32 %16, 0
  %17 = load i32, ptr %8, align 8, !tbaa !136
  %18 = icmp sgt i32 %17, 2
  %or.cond52 = select i1 %.not, i1 true, i1 %18
  br i1 %or.cond52, label %thread-pre-split, label %._crit_edge.loopexit.split.loop.exit49

thread-pre-split:                                 ; preds = %15, %12
  %19 = phi i32 [ %13, %12 ], [ %17, %15 ]
  %20 = load i64, ptr %6, align 8, !tbaa !141
  %21 = add nsw i32 %19, -3
  %22 = zext nneg i32 %21 to i64
  %23 = lshr i64 %20, %22
  %24 = trunc i64 %23 to i32
  %25 = and i32 %24, 7
  %26 = icmp eq i32 %25, 7
  br i1 %26, label %27, label %44

27:                                               ; preds = %thread-pre-split
  %28 = icmp sgt i32 %19, 12
  br i1 %28, label %32, label %29

29:                                               ; preds = %27
  %30 = tail call fastcc i32 @lzh_br_fillup(ptr noundef %0, ptr noundef nonnull %6)
  %.not33 = icmp ne i32 %30, 0
  %.pre = load i32, ptr %8, align 8, !tbaa !136
  %31 = icmp sgt i32 %.pre, 12
  %or.cond = select i1 %.not33, i1 true, i1 %31
  br i1 %or.cond, label %32, label %._crit_edge.loopexit.split.loop.exit

32:                                               ; preds = %29, %27
  %33 = phi i32 [ %.pre, %29 ], [ %19, %27 ]
  %34 = load i64, ptr %6, align 8, !tbaa !141
  %35 = add nsw i32 %33, -13
  %36 = zext nneg i32 %35 to i64
  %37 = lshr i64 %34, %36
  %38 = and i64 %37, 1023
  %.not34 = icmp eq i64 %38, 1023
  br i1 %.not34, label %._crit_edge, label %39

39:                                               ; preds = %32
  %40 = getelementptr inbounds nuw [1024 x i8], ptr @bitlen_tbl, i64 0, i64 %38
  %41 = load i8, ptr %40, align 1, !tbaa !4
  %42 = sext i8 %41 to i32
  %.neg35 = add i32 %33, 3
  %43 = sub i32 %.neg35, %42
  br label %44

44:                                               ; preds = %thread-pre-split, %39
  %storemerge = phi i32 [ %43, %39 ], [ %21, %thread-pre-split ]
  %.029 = phi i32 [ %42, %39 ], [ %25, %thread-pre-split ]
  store i32 %storemerge, ptr %8, align 8, !tbaa !136
  %45 = trunc nsw i32 %.029 to i8
  %46 = load ptr, ptr %9, align 8, !tbaa !147
  %indvars.iv.next = add nsw i64 %indvars.iv, 1
  %47 = getelementptr inbounds i8, ptr %46, i64 %indvars.iv
  store i8 %45, ptr %47, align 1, !tbaa !4
  %48 = sext i32 %.029 to i64
  %49 = getelementptr inbounds [17 x i32], ptr %10, i64 0, i64 %48
  %50 = load i32, ptr %49, align 4, !tbaa !154
  %51 = add nsw i32 %50, 1
  store i32 %51, ptr %49, align 4, !tbaa !154
  %lftr.wideiv = trunc i64 %indvars.iv.next to i32
  %exitcond.not = icmp eq i32 %2, %lftr.wideiv
  br i1 %exitcond.not, label %._crit_edge, label %12, !llvm.loop !173

._crit_edge.loopexit.split.loop.exit:             ; preds = %29
  %52 = trunc nsw i64 %indvars.iv to i32
  br label %._crit_edge

._crit_edge.loopexit.split.loop.exit49:           ; preds = %15
  %53 = trunc nsw i64 %indvars.iv to i32
  br label %._crit_edge

._crit_edge:                                      ; preds = %44, %32, %._crit_edge.loopexit.split.loop.exit, %._crit_edge.loopexit.split.loop.exit49, %3
  %.030 = phi i32 [ %1, %3 ], [ %52, %._crit_edge.loopexit.split.loop.exit ], [ %53, %._crit_edge.loopexit.split.loop.exit49 ], [ %2, %44 ], [ -1, %32 ]
  ret i32 %.030
}